; Function Attrs: mustprogress nofree norecurse nosync nounwind willreturn memory(read, argmem: readwrite, inaccessiblemem: none) uwtable
define dso_local noundef ptr @ExecStoreVirtualTuple(ptr noundef returned captures(ret: address, provenance) initializes((6, 8)) %0) local_unnamed_addr #8 {
  %2 = getelementptr inbounds nuw i8, ptr %0, i64 4
  %3 = load i16, ptr %2, align 4
  %4 = and i16 %3, -3
  store i16 %4, ptr %2, align 4
  %5 = getelementptr inbounds nuw i8, ptr %0, i64 16
  %6 = load ptr, ptr %5, align 8
  %7 = load i32, ptr %6, align 8
  %8 = trunc i32 %7 to i16
  %9 = getelementptr inbounds nuw i8, ptr %0, i64 6
  store i16 %8, ptr %9, align 2
  ret ptr %0
}